; Function Attrs: mustprogress null_pointer_is_valid sspstrong uwtable
define noundef zeroext i1 @_ZNK16ModulePrefsModel16filterAcceptsRowEiRK11QModelIndex(ptr noundef align 8 dereferenceable_or_null(40) %0, i32 noundef %1, ptr noundef align 8 dereferenceable(24) %2) unnamed_addr #0 align 2 {
  %4 = alloca %class.QModelIndex, align 8
  call void @llvm.lifetime.start.p0(i64 24, ptr nonnull %4) #26
  %5 = tail call noundef ptr @_ZNK19QAbstractProxyModel11sourceModelEv(ptr noundef align 8 dereferenceable_or_null(16) %0)
  %6 = load ptr, ptr %5, align 8
  %7 = getelementptr inbounds nuw i8, ptr %6, i64 96
  %8 = load ptr, ptr %7, align 8
  call void %8(ptr dead_on_unwind nonnull writable sret(%class.QModelIndex) align 8 %4, ptr noundef align 8 dereferenceable_or_null(16) %5, i32 noundef %1, i32 noundef 0, ptr noundef align 8 dereferenceable(24) %2)
  %9 = getelementptr inbounds nuw i8, ptr %4, i64 8
  %10 = load i64, ptr %9, align 8
  %11 = inttoptr i64 %10 to ptr
  %12 = icmp eq i64 %10, 0
  br i1 %12, label %24, label %13

13:                                               ; preds = %3
  %14 = getelementptr inbounds nuw i8, ptr %11, i64 40
  %15 = load ptr, ptr %14, align 8
  %.not = icmp eq ptr %15, null
  br i1 %.not, label %16, label %24

16:                                               ; preds = %13
  %17 = getelementptr inbounds nuw i8, ptr %11, i64 48
  %18 = load ptr, ptr %17, align 8
  %.not8 = icmp eq ptr %18, null
  br i1 %.not8, label %23, label %19

19:                                               ; preds = %16
  %20 = getelementptr inbounds nuw i8, ptr %18, i64 73
  %21 = load i8, ptr %20, align 1, !range !9, !noundef !10
  %22 = trunc nuw i8 %21 to i1
  br i1 %22, label %23, label %24

23:                                               ; preds = %19, %16
  br label %24

24:                                               ; preds = %19, %13, %3, %23
  %.0 = phi i1 [ true, %23 ], [ true, %3 ], [ false, %13 ], [ false, %19 ]
  call void @llvm.lifetime.end.p0(i64 24, ptr nonnull %4) #26
  ret i1 %.0
}